target datalayout = "e-m:e-p270:32:32-p271:32:32-p272:64:64-i64:64-i128:128-f80:128-n8:16:32:64-S128"
target triple = "x86_64-pc-linux-gnu"

%struct.SDL_AtomicInt = type { i32 }
%struct.SDL_Camera = type { ptr, ptr, i32, %struct.SDL_AtomicInt, ptr, ptr, ptr, ptr, i32, %struct.SDL_CameraSpec, %struct.SDL_CameraSpec, i32, ptr, i32, i64, i64, ptr, ptr, [8 x %struct.SurfaceList], %struct.SurfaceList, %struct.SurfaceList, %struct.SurfaceList, ptr, i32, i8, %struct.SDL_AtomicInt, %struct.SDL_AtomicInt, ptr, i32, i32, ptr }
%struct.SDL_CameraSpec = type { i32, i32, i32, i32, i32, i32 }
%struct.SurfaceList = type { ptr, i64, ptr }

; Function Attrs: nounwind uwtable
define internal zeroext i1 @ZombieWaitDevice(ptr noundef %0) #0 {
  %2 = alloca ptr, align 8
  %3 = alloca double, align 8
  store ptr %0, ptr %2, align 8
  %4 = load ptr, ptr %2, align 8
  %5 = getelementptr inbounds nuw %struct.SDL_Camera, ptr %4, i32 0, i32 25
  %6 = call i32 @SDL_GetAtomicInt_REAL(ptr noundef %5)
  %7 = icmp ne i32 %6, 0
  br i1 %7, label %23, label %8

8:                                                ; preds = %1
  call void @llvm.lifetime.start.p0(i64 8, ptr %3) #7
  %9 = load ptr, ptr %2, align 8
  %10 = getelementptr inbounds nuw %struct.SDL_Camera, ptr %9, i32 0, i32 9
  %11 = getelementptr inbounds nuw %struct.SDL_CameraSpec, ptr %10, i32 0, i32 5
  %12 = load i32, ptr %11, align 4
  %13 = sitofp i32 %12 to double
  %14 = load ptr, ptr %2, align 8
  %15 = getelementptr inbounds nuw %struct.SDL_Camera, ptr %14, i32 0, i32 9
  %16 = getelementptr inbounds nuw %struct.SDL_CameraSpec, ptr %15, i32 0, i32 4
  %17 = load i32, ptr %16, align 4
  %18 = sitofp i32 %17 to double
  %19 = fdiv double %13, %18
  store double %19, ptr %3, align 8
  %20 = load double, ptr %3, align 8
  %21 = fmul double %20, 1.000000e+03
  %22 = fptoui double %21 to i32
  call void @SDL_Delay_REAL(i32 noundef %22)
  call void @llvm.lifetime.end.p0(i64 8, ptr %3) #7
  br label %23

23:                                               ; preds = %8, %1
  ret i1 true
}