; Function Attrs: nounwind uwtable
define internal noundef zeroext i1 @ZombieWaitDevice(ptr noundef %0) #1 {
  %2 = getelementptr inbounds nuw i8, ptr %0, i64 440
  %3 = tail call i32 @SDL_GetAtomicInt_REAL(ptr noundef nonnull %2) #11
  %.not = icmp eq i32 %3, 0
  br i1 %.not, label %4, label %14

4:                                                ; preds = %1
  %5 = getelementptr inbounds nuw i8, ptr %0, i64 80
  %6 = load i32, ptr %5, align 4
  %7 = sitofp i32 %6 to double
  %8 = getelementptr inbounds nuw i8, ptr %0, i64 76
  %9 = load i32, ptr %8, align 4
  %10 = sitofp i32 %9 to double
  %11 = fdiv double %7, %10
  %12 = fmul double %11, 1.000000e+03
  %13 = fptoui double %12 to i32
  tail call void @SDL_Delay_REAL(i32 noundef %13) #11
  br label %14

14:                                               ; preds = %4, %1
  ret i1 true
}